; Function Attrs: nounwind uwtable
define hidden noundef zeroext i1 @SDL_SetWindowProgressValue_REAL(ptr noundef %0, float noundef %1) local_unnamed_addr #0 {
  %3 = load ptr, ptr @_this, align 8
  %.not = icmp eq ptr %3, null
  br i1 %.not, label %4, label %6

4:                                                ; preds = %2
  %5 = tail call zeroext i1 (ptr, ...) @SDL_SetError_REAL(ptr noundef nonnull @.str.1) #19
  br label %28

6:                                                ; preds = %2
  %7 = tail call zeroext i1 @SDL_ObjectValid(ptr noundef %0, i32 noundef 1) #19
  br i1 %7, label %10, label %8

8:                                                ; preds = %6
  %9 = tail call zeroext i1 (ptr, ...) @SDL_SetError_REAL(ptr noundef nonnull @.str.20) #19
  br label %28

10:                                               ; preds = %6
  %11 = getelementptr inbounds nuw i8, ptr %0, i64 72
  %12 = load i64, ptr %11, align 8
  %13 = and i64 %12, 786432
  %.not11 = icmp eq i64 %13, 0
  br i1 %.not11, label %16, label %14

14:                                               ; preds = %10
  %15 = tail call zeroext i1 (ptr, ...) @SDL_SetError_REAL(ptr noundef nonnull @.str.22) #19
  br label %28

16:                                               ; preds = %10
  %17 = fcmp olt float %1, 0.000000e+00
  %18 = fcmp ogt float %1, 1.000000e+00
  %19 = select i1 %18, float 1.000000e+00, float %1
  %20 = select i1 %17, float 0.000000e+00, float %19
  %21 = getelementptr inbounds nuw i8, ptr %0, i64 372
  store float %20, ptr %21, align 4
  %22 = load ptr, ptr @_this, align 8
  %23 = getelementptr inbounds nuw i8, ptr %22, i64 376
  %24 = load ptr, ptr %23, align 8
  %.not12 = icmp eq ptr %24, null
  br i1 %.not12, label %27, label %25

25:                                               ; preds = %16
  %26 = tail call zeroext i1 %24(ptr noundef nonnull %22, ptr noundef nonnull %0) #19
  br i1 %26, label %27, label %28

27:                                               ; preds = %25, %16
  br label %28

28:                                               ; preds = %25, %27, %14, %8, %4
  %.0 = phi i1 [ false, %14 ], [ true, %27 ], [ false, %8 ], [ false, %4 ], [ false, %25 ]
  ret i1 %.0
}